target datalayout = "e-m:e-p270:32:32-p271:32:32-p272:64:64-i64:64-i128:128-f80:128-n8:16:32:64-S128"
target triple = "x86_64-pc-linux-gnu"

%struct._user_encap_t = type { i32, ptr, ptr, ptr, ptr, ptr, ptr, i32, i32 }

; Function Attrs: null_pointer_is_valid sspstrong uwtable
define internal ptr @user_copy_cb(ptr noundef %0, ptr noundef %1, i64 noundef %2) #0 {
  %4 = alloca ptr, align 8
  %5 = alloca ptr, align 8
  %6 = alloca i64, align 8
  %7 = alloca ptr, align 8
  %8 = alloca ptr, align 8
  store ptr %0, ptr %4, align 8
  store ptr %1, ptr %5, align 8
  store i64 %2, ptr %6, align 8
  call void @llvm.lifetime.start.p0(i64 8, ptr %7) #4
  %9 = load ptr, ptr %5, align 8
  store ptr %9, ptr %7, align 8
  call void @llvm.lifetime.start.p0(i64 8, ptr %8) #4
  %10 = load ptr, ptr %4, align 8
  store ptr %10, ptr %8, align 8
  %11 = load ptr, ptr %7, align 8
  %12 = getelementptr inbounds nuw %struct._user_encap_t, ptr %11, i32 0, i32 0
  %13 = load i32, ptr %12, align 8
  %14 = load ptr, ptr %8, align 8
  %15 = getelementptr inbounds nuw %struct._user_encap_t, ptr %14, i32 0, i32 0
  store i32 %13, ptr %15, align 8
  %16 = load ptr, ptr %7, align 8
  %17 = getelementptr inbounds nuw %struct._user_encap_t, ptr %16, i32 0, i32 1
  %18 = load ptr, ptr %17, align 8
  %19 = call noalias ptr @g_strdup(ptr noundef %18)
  %20 = load ptr, ptr %8, align 8
  %21 = getelementptr inbounds nuw %struct._user_encap_t, ptr %20, i32 0, i32 1
  store ptr %19, ptr %21, align 8
  %22 = load ptr, ptr %7, align 8
  %23 = getelementptr inbounds nuw %struct._user_encap_t, ptr %22, i32 0, i32 2
  %24 = load ptr, ptr %23, align 8
  %25 = load ptr, ptr %8, align 8
  %26 = getelementptr inbounds nuw %struct._user_encap_t, ptr %25, i32 0, i32 2
  store ptr %24, ptr %26, align 8
  %27 = load ptr, ptr %7, align 8
  %28 = getelementptr inbounds nuw %struct._user_encap_t, ptr %27, i32 0, i32 3
  %29 = load ptr, ptr %28, align 8
  %30 = call noalias ptr @g_strdup(ptr noundef %29)
  %31 = load ptr, ptr %8, align 8
  %32 = getelementptr inbounds nuw %struct._user_encap_t, ptr %31, i32 0, i32 3
  store ptr %30, ptr %32, align 8
  %33 = load ptr, ptr %7, align 8
  %34 = getelementptr inbounds nuw %struct._user_encap_t, ptr %33, i32 0, i32 4
  %35 = load ptr, ptr %34, align 8
  %36 = load ptr, ptr %8, align 8
  %37 = getelementptr inbounds nuw %struct._user_encap_t, ptr %36, i32 0, i32 4
  store ptr %35, ptr %37, align 8
  %38 = load ptr, ptr %7, align 8
  %39 = getelementptr inbounds nuw %struct._user_encap_t, ptr %38, i32 0, i32 5
  %40 = load ptr, ptr %39, align 8
  %41 = call noalias ptr @g_strdup(ptr noundef %40)
  %42 = load ptr, ptr %8, align 8
  %43 = getelementptr inbounds nuw %struct._user_encap_t, ptr %42, i32 0, i32 5
  store ptr %41, ptr %43, align 8
  %44 = load ptr, ptr %7, align 8
  %45 = getelementptr inbounds nuw %struct._user_encap_t, ptr %44, i32 0, i32 6
  %46 = load ptr, ptr %45, align 8
  %47 = load ptr, ptr %8, align 8
  %48 = getelementptr inbounds nuw %struct._user_encap_t, ptr %47, i32 0, i32 6
  store ptr %46, ptr %48, align 8
  %49 = load ptr, ptr %7, align 8
  %50 = getelementptr inbounds nuw %struct._user_encap_t, ptr %49, i32 0, i32 7
  %51 = load i32, ptr %50, align 8
  %52 = load ptr, ptr %8, align 8
  %53 = getelementptr inbounds nuw %struct._user_encap_t, ptr %52, i32 0, i32 7
  store i32 %51, ptr %53, align 8
  %54 = load ptr, ptr %7, align 8
  %55 = getelementptr inbounds nuw %struct._user_encap_t, ptr %54, i32 0, i32 8
  %56 = load i32, ptr %55, align 4
  %57 = load ptr, ptr %8, align 8
  %58 = getelementptr inbounds nuw %struct._user_encap_t, ptr %57, i32 0, i32 8
  store i32 %56, ptr %58, align 4
  %59 = load ptr, ptr %8, align 8
  call void @llvm.lifetime.end.p0(i64 8, ptr %8) #4
  call void @llvm.lifetime.end.p0(i64 8, ptr %7) #4
  ret ptr %59
}