; Function Attrs: null_pointer_is_valid sspstrong uwtable
define internal noundef ptr @user_copy_cb(ptr noundef returned writeonly captures(ret: address, provenance) initializes((0, 4), (8, 64)) %0, ptr noundef readonly captures(none) %1, i64 %2) #0 {
  %4 = load i32, ptr %1, align 8
  store i32 %4, ptr %0, align 8
  %5 = getelementptr inbounds nuw i8, ptr %1, i64 8
  %6 = load ptr, ptr %5, align 8
  %7 = tail call noalias ptr @g_strdup(ptr noundef %6)
  %8 = getelementptr inbounds nuw i8, ptr %0, i64 8
  store ptr %7, ptr %8, align 8
  %9 = getelementptr inbounds nuw i8, ptr %1, i64 16
  %10 = load ptr, ptr %9, align 8
  %11 = getelementptr inbounds nuw i8, ptr %0, i64 16
  store ptr %10, ptr %11, align 8
  %12 = getelementptr inbounds nuw i8, ptr %1, i64 24
  %13 = load ptr, ptr %12, align 8
  %14 = tail call noalias ptr @g_strdup(ptr noundef %13)
  %15 = getelementptr inbounds nuw i8, ptr %0, i64 24
  store ptr %14, ptr %15, align 8
  %16 = getelementptr inbounds nuw i8, ptr %1, i64 32
  %17 = load ptr, ptr %16, align 8
  %18 = getelementptr inbounds nuw i8, ptr %0, i64 32
  store ptr %17, ptr %18, align 8
  %19 = getelementptr inbounds nuw i8, ptr %1, i64 40
  %20 = load ptr, ptr %19, align 8
  %21 = tail call noalias ptr @g_strdup(ptr noundef %20)
  %22 = getelementptr inbounds nuw i8, ptr %0, i64 40
  store ptr %21, ptr %22, align 8
  %23 = getelementptr inbounds nuw i8, ptr %1, i64 48
  %24 = load ptr, ptr %23, align 8
  %25 = getelementptr inbounds nuw i8, ptr %0, i64 48
  store ptr %24, ptr %25, align 8
  %26 = getelementptr inbounds nuw i8, ptr %1, i64 56
  %27 = load i32, ptr %26, align 8
  %28 = getelementptr inbounds nuw i8, ptr %0, i64 56
  store i32 %27, ptr %28, align 8
  %29 = getelementptr inbounds nuw i8, ptr %1, i64 60
  %30 = load i32, ptr %29, align 4
  %31 = getelementptr inbounds nuw i8, ptr %0, i64 60
  store i32 %30, ptr %31, align 4
  ret ptr %0
}